; Function Attrs: mustprogress uwtable
define void @_ZNK6casadi7OptiSol7get_strB5cxx11Eb(ptr dead_on_unwind noalias writable sret(%"class.std::__cxx11::basic_string") align 8 %0, ptr noundef nonnull align 8 dereferenceable(24) %1, i1 noundef zeroext %2) local_unnamed_addr #3 align 2 personality ptr @__gxx_personality_v0 {
  %4 = alloca %"class.std::__cxx11::basic_stringstream", align 8
  %5 = getelementptr inbounds i8, ptr %1, i64 8
  call void @llvm.lifetime.start.p0(i64 392, ptr nonnull %4)
  call void @_ZNSt7__cxx1118basic_stringstreamIcSt11char_traitsIcESaIcEEC1Ev(ptr noundef nonnull align 8 dereferenceable(128) %4), !noalias !63
  %6 = getelementptr inbounds i8, ptr %4, i64 16
  invoke void @_ZNK6casadi4Opti4dispERSob(ptr noundef nonnull align 8 dereferenceable(8) %5, ptr noundef nonnull align 8 dereferenceable(8) %6, i1 zeroext poison)
          to label %7 unwind label %8, !noalias !63

7:                                                ; preds = %3
  invoke void @_ZNKSt7__cxx1118basic_stringstreamIcSt11char_traitsIcESaIcEE3strEv(ptr dead_on_unwind writable sret(%"class.std::__cxx11::basic_string") align 8 %0, ptr noundef nonnull align 8 dereferenceable(128) %4)
          to label %_ZNK6casadi4Opti7get_strB5cxx11Eb.exit unwind label %8

8:                                                ; preds = %7, %3
  %9 = landingpad { ptr, i32 }
          cleanup
  call void @_ZNSt7__cxx1118basic_stringstreamIcSt11char_traitsIcESaIcEED1Ev(ptr noundef nonnull align 8 dereferenceable(128) %4) #17
  resume { ptr, i32 } %9

_ZNK6casadi4Opti7get_strB5cxx11Eb.exit:           ; preds = %7
  call void @_ZNSt7__cxx1118basic_stringstreamIcSt11char_traitsIcESaIcEED1Ev(ptr noundef nonnull align 8 dereferenceable(128) %4) #17
  call void @llvm.lifetime.end.p0(i64 392, ptr nonnull %4)
  ret void
}